; Function Attrs: nounwind uwtable
define internal fastcc range(i32 -1, 1) i32 @Compressor_init_raw(ptr noundef readonly captures(none) %0, ptr noundef nonnull %1, ptr noundef %2) unnamed_addr #0 {
  %4 = alloca [5 x %struct.lzma_filter], align 16
  call void @llvm.lifetime.start.p0(i64 80, ptr nonnull %4) #10
  %5 = icmp eq ptr %2, @_Py_NoneStruct
  br i1 %5, label %6, label %8

6:                                                ; preds = %3
  %7 = load ptr, ptr @PyExc_ValueError, align 8, !tbaa !15
  tail call void @PyErr_SetString(ptr noundef %7, ptr noundef nonnull @.str.88) #10
  br label %22

8:                                                ; preds = %3
  %9 = call fastcc i32 @parse_filter_chain_spec(ptr noundef %0, ptr noundef %4, ptr noundef %2)
  %10 = icmp eq i32 %9, -1
  br i1 %10, label %22, label %11

11:                                               ; preds = %8
  %12 = call i32 @lzma_raw_encoder(ptr noundef nonnull %1, ptr noundef nonnull %4) #10
  %13 = load i64, ptr %4, align 16, !tbaa !16
  %.not4.i = icmp eq i64 %13, -1
  br i1 %.not4.i, label %free_filter_chain.exit, label %.lr.ph.i

.lr.ph.i:                                         ; preds = %11, %.lr.ph.i
  %14 = phi ptr [ %19, %.lr.ph.i ], [ %4, %11 ]
  %.05.i = phi i32 [ %17, %.lr.ph.i ], [ 0, %11 ]
  %15 = getelementptr inbounds nuw i8, ptr %14, i64 8
  %16 = load ptr, ptr %15, align 8, !tbaa !21
  call void @PyMem_Free(ptr noundef %16) #10
  %17 = add i32 %.05.i, 1
  %18 = sext i32 %17 to i64
  %19 = getelementptr %struct.lzma_filter, ptr %4, i64 %18
  %20 = load i64, ptr %19, align 16, !tbaa !16
  %.not.i = icmp eq i64 %20, -1
  br i1 %.not.i, label %free_filter_chain.exit, label %.lr.ph.i, !llvm.loop !73

free_filter_chain.exit:                           ; preds = %.lr.ph.i, %11
  %21 = call fastcc i32 @catch_lzma_error(ptr noundef %0, i32 noundef %12)
  %sext = sub nsw i32 0, %21
  br label %22

22:                                               ; preds = %free_filter_chain.exit, %8, %6
  %.0 = phi i32 [ -1, %6 ], [ -1, %8 ], [ %sext, %free_filter_chain.exit ]
  call void @llvm.lifetime.end.p0(i64 80, ptr nonnull %4) #10
  ret i32 %.0
}